Certificate:
    Data:
        Version: 1 (0x0)
        Serial Number: 1 (0x1)
    Signature Algorithm: sha1WithRSAEncryption
        Issuer: C=US, ST=CA, O=Open vSwitch, OU=switchca, CN=OVS switchca CA Certificate (2015 May 26 19:45:13)
        Validity
            Not Before: May 26 14:15:13 2015 GMT
            Not After : May 23 14:15:13 2025 GMT
        Subject: C=US, ST=CA, O=Open vSwitch, OU=switchca, CN=OVS switchca CA Certificate (2015 May 26 19:45:13)
        Subject Public Key Info:
            Public Key Algorithm: rsaEncryption
                Public-Key: (2048 bit)
                Modulus:
                    00:cd:04:88:31:46:06:3f:a9:bf:6f:f3:4a:e7:f5:
                    13:6c:62:57:7c:2a:1c:17:7e:79:b3:90:8e:06:70:
                    98:a9:15:98:cc:2f:0e:32:ab:45:cc:4d:a9:af:62:
                    7c:33:42:1d:48:09:da:37:0a:80:57:ef:78:19:fd:
                    3e:8f:01:21:d0:fc:7e:23:fe:90:1e:7b:ee:6e:55:
                    de:3e:16:55:85:3f:61:18:8e:4e:19:21:43:db:ce:
                    4b:9f:38:0b:60:58:02:7c:55:89:44:b6:53:6c:c0:
                    40:35:a2:3a:ad:fc:a9:ff:ba:4f:f3:d1:59:d7:2c:
                    f2:1a:eb:eb:46:0f:f6:89:35:6e:30:e6:49:a8:82:
                    e9:29:6d:40:bc:22:1d:8d:f7:1e:5c:45:f2:ee:e4:
                    7a:13:b9:8d:b1:e4:9c:75:b2:a8:3e:51:28:0a:d4:
                    54:1f:69:1f:69:34:54:8a:d0:ec:98:f5:3f:de:84:
                    c7:79:6b:fa:42:7e:1f:35:ec:e8:8e:7a:96:19:44:
                    20:2b:fb:f0:3f:c1:90:70:ef:33:4a:9b:81:13:9d:
                    1a:6d:0c:30:b6:f7:5b:49:ee:8e:c4:07:97:2a:21:
                    85:b4:25:14:29:78:74:89:fe:7e:d2:07:da:76:89:
                    9b:93:a9:de:0c:49:2b:d3:17:96:cf:b2:9d:0e:61:
                    94:ef
                Exponent: 65537 (0x10001)
    Signature Algorithm: sha1WithRSAEncryption
         ba:be:0b:30:62:cd:07:b0:bd:81:67:59:5f:71:d4:f0:d9:4f:
         ac:ee:b5:80:59:a7:52:c3:8a:ca:bd:70:88:57:3e:b8:49:a0:
         39:62:71:40:40:4b:a9:9a:d7:ee:9a:27:23:97:dc:61:e6:44:
         14:27:61:15:42:9a:7d:47:f3:12:81:e4:96:a7:6e:39:39:b3:
         70:15:a4:1a:0f:e3:92:f1:9b:80:2c:b3:24:1f:74:95:a8:22:
         43:62:52:15:d5:03:13:0f:53:76:76:11:59:bd:1d:6b:58:1d:
         fd:d7:e2:86:80:db:fa:96:49:e4:a9:d1:04:43:ed:fe:c0:d2:
         d4:52:63:d4:ba:1a:2c:c8:da:43:2a:35:49:98:de:0f:f1:60:
         6f:8d:65:6e:42:31:1d:4a:93:77:cf:62:7e:5b:66:84:7f:75:
         c7:ac:22:65:76:0f:83:a8:33:10:e3:30:ff:80:37:7a:12:3e:
         d3:28:dd:09:51:2a:35:9e:82:9d:a8:fb:c8:e9:2b:07:2c:fe:
         bb:19:67:38:72:33:88:4d:fa:c6:61:76:50:64:e7:2e:7f:7c:
         65:2d:72:d6:11:65:d6:c5:16:94:99:89:ea:ea:7f:1c:e8:47:
         dc:f0:1d:4e:6f:75:fb:6d:71:af:84:4a:c3:0c:23:15:04:4a:
         c0:db:12:ec
-----BEGIN CERTIFICATE-----
MIIDeDCCAmACAQEwDQYJKoZIhvcNAQEFBQAwgYExCzAJBgNVBAYTAlVTMQswCQYD
VQQIEwJDQTEVMBMGA1UEChMMT3BlbiB2U3dpdGNoMREwDwYDVQQLEwhzd2l0Y2hj
YTE7MDkGA1UEAxMyT1ZTIHN3aXRjaGNhIENBIENlcnRpZmljYXRlICgyMDE1IE1h
eSAyNiAxOTo0NToxMykwHhcNMTUwNTI2MTQxNTEzWhcNMjUwNTIzMTQxNTEzWjCB
gTELMAkGA1UEBhMCVVMxCzAJBgNVBAgTAkNBMRUwEwYDVQQKEwxPcGVuIHZTd2l0
Y2gxETAPBgNVBAsTCHN3aXRjaGNhMTswOQYDVQQDEzJPVlMgc3dpdGNoY2EgQ0Eg
Q2VydGlmaWNhdGUgKDIwMTUgTWF5IDI2IDE5OjQ1OjEzKTCCASIwDQYJKoZIhvcN
AQEBBQADggEPADCCAQoCggEBAM0EiDFGBj+pv2/zSuf1E2xiV3wqHBd+ebOQjgZw
mKkVmMwvDjKrRcxNqa9ifDNCHUgJ2jcKgFfveBn9Po8BIdD8fiP+kB577m5V3j4W
VYU/YRiOThkhQ9vOS584C2BYAnxViUS2U2zAQDWiOq38qf+6T/PRWdcs8hrr60YP
9ok1bjDmSaiC6SltQLwiHY33HlxF8u7kehO5jbHknHWyqD5RKArUVB9pH2k0VIrQ
7Jj1P96Ex3lr+kJ+HzXs6I56lhlEICv78D/BkHDvM0qbgROdGm0MMLb3W0nujsQH
lyohhbQlFCl4dIn+ftIH2naJm5Op3gxJK9MXls+ynQ5hlO8CAwEAATANBgkqhkiG
9w0BAQUFAAOCAQEAur4LMGLNB7C9gWdZX3HU8NlPrO61gFmnUsOKyr1wiFc+uEmg
OWJxQEBLqZrX7ponI5fcYeZEFCdhFUKafUfzEoHklqduOTmzcBWkGg/jkvGbgCyz
JB90lagiQ2JSFdUDEw9TdnYRWb0da1gd/dfihoDb+pZJ5KnRBEPt/sDS1FJj1Loa
LMjaQyo1SZjeD/Fgb41lbkIxHUqTd89ifltmhH91x6wiZXYPg6gzEOMw/4A3ehI+
0yjdCVEqNZ6Cnaj7yOkrByz+uxlnOHIziE36xmF2UGTnLn98ZS1y1hFl1sUWlJmJ
6up/HOhH3PAdTm91+21xr4RKwwwjFQRKwNsS7A==
-----END CERTIFICATE-----
