Certificate:
    Data:
        Version: 1 (0x0)
        Serial Number: 3 (0x3)
    Signature Algorithm: sha1WithRSAEncryption
        Issuer: C=US, ST=CA, O=Open vSwitch, OU=switchca, CN=OVS switchca CA Certificate (2015 May 26 19:45:13)
        Validity
            Not Before: May 26 14:19:05 2015 GMT
            Not After : May 23 14:19:05 2025 GMT
        Subject: C=US, ST=CA, O=Open vSwitch, OU=Open vSwitch certifier, CN=sc id:bd335593-9da1-41c7-a216-486dae463d61
        Subject Public Key Info:
            Public Key Algorithm: rsaEncryption
                Public-Key: (2048 bit)
                Modulus:
                    00:d7:dc:be:4b:4d:2f:3a:52:f4:88:89:a9:dd:6e:
                    a1:b1:2d:34:fb:59:a5:43:d9:06:be:6c:ef:a7:4e:
                    7b:14:f9:18:d1:48:7c:b0:00:aa:77:8e:93:f4:a7:
                    1c:a7:a7:89:40:da:27:17:19:99:8f:7f:91:f6:4c:
                    c5:a1:92:55:12:66:7d:23:00:54:2a:8b:b9:9b:26:
                    96:d0:88:eb:ab:42:27:d5:fa:89:14:20:61:64:0b:
                    dc:7d:ac:34:38:71:f1:95:bb:c2:06:5a:8b:c1:69:
                    56:b3:67:7f:1c:72:f5:48:0f:78:bf:70:a6:b2:6a:
                    a8:99:50:3f:38:4e:a6:cc:d5:91:27:d4:5a:f6:b4:
                    5e:bc:e8:5a:25:89:f4:68:c9:a7:a9:40:16:f4:38:
                    5d:76:13:0d:04:16:f6:72:05:d2:42:c2:58:05:9d:
                    f4:a5:84:a2:19:ec:84:4c:15:49:e0:21:81:7d:d4:
                    97:24:69:34:1b:40:fb:7b:2f:f0:9e:c9:1d:cc:44:
                    18:4f:bb:cb:4f:51:05:b2:2b:ed:34:a6:a7:e7:7c:
                    9b:15:d2:dc:b9:5f:e8:84:fd:d4:e1:7f:ba:80:ec:
                    2f:39:be:d5:2b:e3:4e:39:d8:9e:66:82:bd:fe:7f:
                    7d:18:53:f5:f9:99:6c:08:09:6b:a4:5d:30:28:56:
                    e6:ed
                Exponent: 65537 (0x10001)
    Signature Algorithm: sha1WithRSAEncryption
         98:ac:70:73:75:cd:a9:31:5c:a0:9d:a6:57:5f:9b:82:c4:d3:
         13:44:d3:dc:8a:01:0b:a1:13:03:d3:a2:65:3f:1a:6f:07:79:
         d8:e5:bb:72:64:03:fc:ee:ce:a7:5e:36:e1:99:e2:8a:46:97:
         0e:0f:b3:ca:c1:81:d4:eb:f7:f0:df:92:ca:4c:88:ad:82:1e:
         98:1f:7d:f1:20:42:5e:ad:18:ad:44:68:76:bb:f4:cf:15:92:
         19:d8:a0:7c:39:5e:96:07:21:ba:a7:66:a5:98:d0:fc:40:88:
         09:e9:9d:46:d3:a8:c8:92:b8:1c:d1:ba:7b:ff:45:85:fd:1e:
         03:4a:a6:88:72:dc:9d:93:2c:50:7d:b3:ee:db:98:c4:97:11:
         76:e5:3b:97:4d:c2:61:3a:f7:c3:2c:70:13:66:10:33:70:93:
         de:b0:f7:be:31:9f:88:f2:42:40:e2:de:85:83:79:14:0c:d2:
         81:2d:33:a1:81:e0:52:b8:bc:31:48:e0:2f:06:b5:39:f9:50:
         6a:43:be:36:ff:e4:14:34:0a:d5:24:10:ba:b0:8e:10:01:da:
         f8:44:f4:fd:5b:00:e8:b8:6e:a7:3a:9e:ac:dc:39:bf:dd:bb:
         ab:35:70:08:2e:d3:c8:cf:82:d3:1c:63:8c:9e:fb:8c:ae:8d:
         ff:d6:28:2e
-----BEGIN CERTIFICATE-----
MIIDfjCCAmYCAQMwDQYJKoZIhvcNAQEFBQAwgYExCzAJBgNVBAYTAlVTMQswCQYD
VQQIEwJDQTEVMBMGA1UEChMMT3BlbiB2U3dpdGNoMREwDwYDVQQLEwhzd2l0Y2hj
YTE7MDkGA1UEAxMyT1ZTIHN3aXRjaGNhIENBIENlcnRpZmljYXRlICgyMDE1IE1h
eSAyNiAxOTo0NToxMykwHhcNMTUwNTI2MTQxOTA1WhcNMjUwNTIzMTQxOTA1WjCB
hzELMAkGA1UEBhMCVVMxCzAJBgNVBAgTAkNBMRUwEwYDVQQKEwxPcGVuIHZTd2l0
Y2gxHzAdBgNVBAsTFk9wZW4gdlN3aXRjaCBjZXJ0aWZpZXIxMzAxBgNVBAMTKnNj
IGlkOmJkMzM1NTkzLTlkYTEtNDFjNy1hMjE2LTQ4NmRhZTQ2M2Q2MTCCASIwDQYJ
KoZIhvcNAQEBBQADggEPADCCAQoCggEBANfcvktNLzpS9IiJqd1uobEtNPtZpUPZ
Br5s76dOexT5GNFIfLAAqneOk/SnHKeniUDaJxcZmY9/kfZMxaGSVRJmfSMAVCqL
uZsmltCI66tCJ9X6iRQgYWQL3H2sNDhx8ZW7wgZai8FpVrNnfxxy9UgPeL9wprJq
qJlQPzhOpszVkSfUWva0XrzoWiWJ9GjJp6lAFvQ4XXYTDQQW9nIF0kLCWAWd9KWE
ohnshEwVSeAhgX3UlyRpNBtA+3sv8J7JHcxEGE+7y09RBbIr7TSmp+d8mxXS3Llf
6IT91OF/uoDsLzm+1SvjTjnYnmaCvf5/fRhT9fmZbAgJa6RdMChW5u0CAwEAATAN
BgkqhkiG9w0BAQUFAAOCAQEAmKxwc3XNqTFcoJ2mV1+bgsTTE0TT3IoBC6ETA9Oi
ZT8abwd52OW7cmQD/O7Op1424ZniikaXDg+zysGB1Ov38N+SykyIrYIemB998SBC
Xq0YrURodrv0zxWSGdigfDlelgchuqdmpZjQ/ECICemdRtOoyJK4HNG6e/9Fhf0e
A0qmiHLcnZMsUH2z7tuYxJcRduU7l03CYTr3wyxwE2YQM3CT3rD3vjGfiPJCQOLe
hYN5FAzSgS0zoYHgUri8MUjgLwa1OflQakO+Nv/kFDQK1SQQurCOEAHa+ET0/VsA
6LhupzqerNw5v927qzVwCC7TyM+C0xxjjJ77jK6N/9YoLg==
-----END CERTIFICATE-----
